target datalayout = "e-m:e-p270:32:32-p271:32:32-p272:64:64-i64:64-i128:128-f80:128-n8:16:32:64-S128"
target triple = "x86_64-pc-linux-gnu"

%struct.added_obj_st = type { i32, ptr }
%struct.asn1_object_st = type { ptr, ptr, i32, i32, ptr, i32 }

; Function Attrs: nounwind uwtable
define internal i64 @added_obj_hash(ptr noundef %0) #0 {
  %2 = alloca i64, align 8
  %3 = alloca ptr, align 8
  %4 = alloca ptr, align 8
  %5 = alloca i32, align 4
  %6 = alloca i64, align 8
  %7 = alloca ptr, align 8
  %8 = alloca i32, align 4
  store ptr %0, ptr %3, align 8, !tbaa !11
  call void @llvm.lifetime.start.p0(i64 8, ptr %4) #6
  call void @llvm.lifetime.start.p0(i64 4, ptr %5) #6
  call void @llvm.lifetime.start.p0(i64 8, ptr %6) #6
  store i64 0, ptr %6, align 8, !tbaa !8
  call void @llvm.lifetime.start.p0(i64 8, ptr %7) #6
  %9 = load ptr, ptr %3, align 8, !tbaa !11
  %10 = getelementptr inbounds nuw %struct.added_obj_st, ptr %9, i32 0, i32 1
  %11 = load ptr, ptr %10, align 8, !tbaa !13
  store ptr %11, ptr %4, align 8, !tbaa !23
  %12 = load ptr, ptr %3, align 8, !tbaa !11
  %13 = getelementptr inbounds nuw %struct.added_obj_st, ptr %12, i32 0, i32 0
  %14 = load i32, ptr %13, align 8, !tbaa !22
  switch i32 %14, label %63 [
    i32 0, label %15
    i32 1, label %48
    i32 2, label %53
    i32 3, label %58
  ]

15:                                               ; preds = %1
  %16 = load ptr, ptr %4, align 8, !tbaa !23
  %17 = getelementptr inbounds nuw %struct.asn1_object_st, ptr %16, i32 0, i32 3
  %18 = load i32, ptr %17, align 4, !tbaa !31
  %19 = sext i32 %18 to i64
  %20 = shl i64 %19, 20
  store i64 %20, ptr %6, align 8, !tbaa !8
  %21 = load ptr, ptr %4, align 8, !tbaa !23
  %22 = getelementptr inbounds nuw %struct.asn1_object_st, ptr %21, i32 0, i32 4
  %23 = load ptr, ptr %22, align 8, !tbaa !30
  store ptr %23, ptr %7, align 8, !tbaa !26
  store i32 0, ptr %5, align 4, !tbaa !21
  br label %24

24:                                               ; preds = %44, %15
  %25 = load i32, ptr %5, align 4, !tbaa !21
  %26 = load ptr, ptr %4, align 8, !tbaa !23
  %27 = getelementptr inbounds nuw %struct.asn1_object_st, ptr %26, i32 0, i32 3
  %28 = load i32, ptr %27, align 4, !tbaa !31
  %29 = icmp slt i32 %25, %28
  br i1 %29, label %30, label %47

30:                                               ; preds = %24
  %31 = load ptr, ptr %7, align 8, !tbaa !26
  %32 = load i32, ptr %5, align 4, !tbaa !21
  %33 = sext i32 %32 to i64
  %34 = getelementptr inbounds i8, ptr %31, i64 %33
  %35 = load i8, ptr %34, align 1, !tbaa !27
  %36 = zext i8 %35 to i32
  %37 = load i32, ptr %5, align 4, !tbaa !21
  %38 = mul nsw i32 %37, 3
  %39 = srem i32 %38, 24
  %40 = shl i32 %36, %39
  %41 = sext i32 %40 to i64
  %42 = load i64, ptr %6, align 8, !tbaa !8
  %43 = xor i64 %42, %41
  store i64 %43, ptr %6, align 8, !tbaa !8
  br label %44

44:                                               ; preds = %30
  %45 = load i32, ptr %5, align 4, !tbaa !21
  %46 = add nsw i32 %45, 1
  store i32 %46, ptr %5, align 4, !tbaa !21
  br label %24, !llvm.loop !47

47:                                               ; preds = %24
  br label %64

48:                                               ; preds = %1
  %49 = load ptr, ptr %4, align 8, !tbaa !23
  %50 = getelementptr inbounds nuw %struct.asn1_object_st, ptr %49, i32 0, i32 0
  %51 = load ptr, ptr %50, align 8, !tbaa !24
  %52 = call i64 @OPENSSL_LH_strhash(ptr noundef %51)
  store i64 %52, ptr %6, align 8, !tbaa !8
  br label %64

53:                                               ; preds = %1
  %54 = load ptr, ptr %4, align 8, !tbaa !23
  %55 = getelementptr inbounds nuw %struct.asn1_object_st, ptr %54, i32 0, i32 1
  %56 = load ptr, ptr %55, align 8, !tbaa !25
  %57 = call i64 @OPENSSL_LH_strhash(ptr noundef %56)
  store i64 %57, ptr %6, align 8, !tbaa !8
  br label %64

58:                                               ; preds = %1
  %59 = load ptr, ptr %4, align 8, !tbaa !23
  %60 = getelementptr inbounds nuw %struct.asn1_object_st, ptr %59, i32 0, i32 2
  %61 = load i32, ptr %60, align 8, !tbaa !17
  %62 = sext i32 %61 to i64
  store i64 %62, ptr %6, align 8, !tbaa !8
  br label %64

63:                                               ; preds = %1
  store i64 0, ptr %2, align 8
  store i32 1, ptr %8, align 4
  br label %75

64:                                               ; preds = %58, %53, %48, %47
  %65 = load i64, ptr %6, align 8, !tbaa !8
  %66 = and i64 %65, 1073741823
  store i64 %66, ptr %6, align 8, !tbaa !8
  %67 = load ptr, ptr %3, align 8, !tbaa !11
  %68 = getelementptr inbounds nuw %struct.added_obj_st, ptr %67, i32 0, i32 0
  %69 = load i32, ptr %68, align 8, !tbaa !22
  %70 = sext i32 %69 to i64
  %71 = shl i64 %70, 30
  %72 = load i64, ptr %6, align 8, !tbaa !8
  %73 = or i64 %72, %71
  store i64 %73, ptr %6, align 8, !tbaa !8
  %74 = load i64, ptr %6, align 8, !tbaa !8
  store i64 %74, ptr %2, align 8
  store i32 1, ptr %8, align 4
  br label %75

75:                                               ; preds = %64, %63
  call void @llvm.lifetime.end.p0(i64 8, ptr %7) #6
  call void @llvm.lifetime.end.p0(i64 8, ptr %6) #6
  call void @llvm.lifetime.end.p0(i64 4, ptr %5) #6
  call void @llvm.lifetime.end.p0(i64 8, ptr %4) #6
  %76 = load i64, ptr %2, align 8
  ret i64 %76
}