; Function Attrs: nounwind uwtable
define internal i64 @added_obj_hash(ptr noundef readonly captures(none) %0) #0 {
  %2 = getelementptr inbounds nuw i8, ptr %0, i64 8
  %3 = load ptr, ptr %2, align 8, !tbaa !9
  %4 = load i32, ptr %0, align 8, !tbaa !17
  switch i32 %4, label %38 [
    i32 0, label %5
    i32 1, label %22
    i32 2, label %25
    i32 3, label %29
  ]

5:                                                ; preds = %1
  %6 = getelementptr inbounds nuw i8, ptr %3, i64 20
  %7 = load i32, ptr %6, align 4, !tbaa !25
  %8 = sext i32 %7 to i64
  %9 = shl nsw i64 %8, 20
  %10 = getelementptr inbounds nuw i8, ptr %3, i64 24
  %11 = load ptr, ptr %10, align 8, !tbaa !24
  %12 = icmp sgt i32 %7, 0
  br i1 %12, label %.lr.ph.preheader, label %.loopexit

.lr.ph.preheader:                                 ; preds = %5
  %wide.trip.count = zext nneg i32 %7 to i64
  br label %.lr.ph

.lr.ph:                                           ; preds = %.lr.ph.preheader, %.lr.ph
  %indvars.iv = phi i64 [ 0, %.lr.ph.preheader ], [ %indvars.iv.next, %.lr.ph ]
  %.01821 = phi i64 [ %9, %.lr.ph.preheader ], [ %21, %.lr.ph ]
  %13 = getelementptr inbounds nuw i8, ptr %11, i64 %indvars.iv
  %14 = load i8, ptr %13, align 1, !tbaa !20
  %15 = zext i8 %14 to i32
  %16 = trunc i64 %indvars.iv to i32
  %17 = mul i32 %16, 3
  %18 = urem i32 %17, 24
  %19 = shl nuw nsw i32 %15, %18
  %20 = zext nneg i32 %19 to i64
  %21 = xor i64 %.01821, %20
  %indvars.iv.next = add nuw nsw i64 %indvars.iv, 1
  %exitcond.not = icmp eq i64 %indvars.iv.next, %wide.trip.count
  br i1 %exitcond.not, label %.loopexit, label %.lr.ph, !llvm.loop !37

22:                                               ; preds = %1
  %23 = load ptr, ptr %3, align 8, !tbaa !18
  %24 = tail call i64 @OPENSSL_LH_strhash(ptr noundef %23) #10
  br label %.loopexit

25:                                               ; preds = %1
  %26 = getelementptr inbounds nuw i8, ptr %3, i64 8
  %27 = load ptr, ptr %26, align 8, !tbaa !19
  %28 = tail call i64 @OPENSSL_LH_strhash(ptr noundef %27) #10
  br label %.loopexit

29:                                               ; preds = %1
  %30 = getelementptr inbounds nuw i8, ptr %3, i64 16
  %31 = load i32, ptr %30, align 8, !tbaa !13
  %32 = zext i32 %31 to i64
  br label %.loopexit

.loopexit:                                        ; preds = %.lr.ph, %5, %29, %25, %22
  %.1 = phi i64 [ %32, %29 ], [ %28, %25 ], [ %24, %22 ], [ %9, %5 ], [ %21, %.lr.ph ]
  %33 = and i64 %.1, 1073741823
  %34 = load i32, ptr %0, align 8, !tbaa !17
  %35 = sext i32 %34 to i64
  %36 = shl nsw i64 %35, 30
  %37 = or disjoint i64 %36, %33
  br label %38

38:                                               ; preds = %1, %.loopexit
  %.0 = phi i64 [ %37, %.loopexit ], [ 0, %1 ]
  ret i64 %.0
}